; Function Attrs: nounwind uwtable
define noalias nonnull ptr @l_List_forM___at_Lean_IR_EmitC_emitMainFn___spec__3(ptr noundef %0, ptr readnone captures(none) %1, ptr noundef %2) local_unnamed_addr #0 {
  br label %lean_dec.exit

lean_dec.exit:                                    ; preds = %lean_dec.exit.backedge, %3
  %.016 = phi ptr [ %2, %3 ], [ %27, %lean_dec.exit.backedge ]
  %.0 = phi ptr [ %0, %3 ], [ %24, %lean_dec.exit.backedge ]
  %4 = ptrtoint ptr %.0 to i64
  %5 = and i64 %4, 1
  %.not.i17 = icmp eq i64 %5, 0
  br i1 %.not.i17, label %9, label %6

6:                                                ; preds = %lean_dec.exit
  %7 = lshr i64 %4, 1
  %8 = trunc i64 %7 to i32
  br label %lean_obj_tag.exit

9:                                                ; preds = %lean_dec.exit
  %10 = getelementptr i8, ptr %.0, i64 4
  %.val.i = load i32, ptr %10, align 4
  %11 = lshr i32 %.val.i, 24
  br label %lean_obj_tag.exit

lean_obj_tag.exit:                                ; preds = %6, %9
  %.0.i = phi i32 [ %8, %6 ], [ %11, %9 ]
  %12 = icmp eq i32 %.0.i, 0
  br i1 %12, label %13, label %20

13:                                               ; preds = %lean_obj_tag.exit
  tail call void @lean_inc_heartbeat() #5
  %14 = tail call noalias ptr @mi_malloc_small(i64 noundef 24) #5
  %15 = icmp eq ptr %14, null
  br i1 %15, label %16, label %lean_alloc_ctor.exit

16:                                               ; preds = %13
  tail call void @lean_internal_panic_out_of_memory() #6
  unreachable

lean_alloc_ctor.exit:                             ; preds = %13
  %17 = getelementptr inbounds nuw i8, ptr %14, i64 4
  store i32 1, ptr %14, align 4, !tbaa !8
  store i32 131096, ptr %17, align 4
  %18 = getelementptr inbounds nuw i8, ptr %14, i64 8
  store ptr inttoptr (i64 1 to ptr), ptr %18, align 8, !tbaa !4
  %19 = getelementptr inbounds nuw i8, ptr %14, i64 16
  store ptr %.016, ptr %19, align 8, !tbaa !4
  ret ptr %14

20:                                               ; preds = %lean_obj_tag.exit
  %21 = getelementptr inbounds nuw i8, ptr %.0, i64 8
  %22 = load ptr, ptr %21, align 8, !tbaa !4
  %23 = getelementptr inbounds nuw i8, ptr %.0, i64 16
  %24 = load ptr, ptr %23, align 8, !tbaa !4
  %25 = tail call ptr @lean_string_append(ptr noundef %.016, ptr noundef %22) #5
  %26 = load ptr, ptr @l_Lean_IR_EmitC_emitLn___rarg___closed__1, align 8, !tbaa !4
  %27 = tail call ptr @lean_string_append(ptr noundef %25, ptr noundef %26) #5
  tail call void @lean_inc_heartbeat() #5
  %28 = tail call noalias ptr @mi_malloc_small(i64 noundef 24) #5
  %29 = icmp eq ptr %28, null
  br i1 %29, label %30, label %l_Lean_IR_EmitC_emitLn___at_Lean_IR_EmitC_emitMainFn___spec__2.exit

30:                                               ; preds = %20
  tail call void @lean_internal_panic_out_of_memory() #6
  unreachable

l_Lean_IR_EmitC_emitLn___at_Lean_IR_EmitC_emitMainFn___spec__2.exit: ; preds = %20
  %31 = getelementptr inbounds nuw i8, ptr %28, i64 4
  store i32 1, ptr %28, align 4, !tbaa !8
  store i32 131096, ptr %31, align 4
  %32 = getelementptr inbounds nuw i8, ptr %28, i64 8
  store ptr inttoptr (i64 1 to ptr), ptr %32, align 8, !tbaa !4
  %33 = getelementptr inbounds nuw i8, ptr %28, i64 16
  store ptr %27, ptr %33, align 8, !tbaa !4
  %34 = ptrtoint ptr %27 to i64
  %35 = and i64 %34, 1
  %.not = icmp eq i64 %35, 0
  br i1 %.not, label %36, label %lean_inc.exit

36:                                               ; preds = %l_Lean_IR_EmitC_emitLn___at_Lean_IR_EmitC_emitMainFn___spec__2.exit
  %.val.i18 = load i32, ptr %27, align 4, !tbaa !8
  %37 = icmp sgt i32 %.val.i18, 0
  br i1 %37, label %38, label %40, !prof !11

38:                                               ; preds = %36
  %39 = add nuw i32 %.val.i18, 1
  store i32 %39, ptr %27, align 4, !tbaa !8
  br label %lean_inc.exit

40:                                               ; preds = %36
  %.not.i19 = icmp eq i32 %.val.i18, 0
  br i1 %.not.i19, label %lean_inc.exit, label %41

41:                                               ; preds = %40
  tail call void @lean_inc_ref_cold(ptr noundef nonnull %27) #5
  br label %lean_inc.exit

lean_inc.exit:                                    ; preds = %41, %40, %38, %l_Lean_IR_EmitC_emitLn___at_Lean_IR_EmitC_emitMainFn___spec__2.exit
  %42 = ptrtoint ptr %28 to i64
  %43 = and i64 %42, 1
  %.not20 = icmp eq i64 %43, 0
  br i1 %.not20, label %44, label %lean_dec.exit.backedge

44:                                               ; preds = %lean_inc.exit
  %45 = load i32, ptr %28, align 4, !tbaa !8
  %46 = icmp sgt i32 %45, 1
  br i1 %46, label %47, label %49, !prof !11

47:                                               ; preds = %44
  %48 = add nsw i32 %45, -1
  store i32 %48, ptr %28, align 4, !tbaa !8
  br label %lean_dec.exit.backedge

49:                                               ; preds = %44
  %.not.i = icmp eq i32 %45, 0
  br i1 %.not.i, label %lean_dec.exit.backedge, label %50

50:                                               ; preds = %49
  tail call void @lean_dec_ref_cold(ptr noundef nonnull %28) #5
  br label %lean_dec.exit.backedge

lean_dec.exit.backedge:                           ; preds = %50, %49, %47, %lean_inc.exit
  br label %lean_dec.exit
}